target datalayout = "e-m:e-p270:32:32-p271:32:32-p272:64:64-i64:64-i128:128-f80:128-n8:16:32:64-S128"
target triple = "x86_64-pc-linux-gnu"

%struct.lxb_html_tree = type { ptr, ptr, ptr, ptr, ptr, ptr, ptr, %struct.lxb_html_tree_pending_table_t, ptr, i8, i8, i8, i8, i8, i8, ptr, ptr, ptr, i32, i64 }
%struct.lxb_html_tree_pending_table_t = type { ptr, i8 }

; Function Attrs: inlinehint nounwind uwtable
define internal zeroext i1 @lxb_html_tree_insertion_mode_in_body_body_closed(ptr noundef %0, ptr noundef %1) #3 {
  %3 = alloca i1, align 1
  %4 = alloca ptr, align 8
  %5 = alloca ptr, align 8
  %6 = alloca ptr, align 8
  %7 = alloca i32, align 4
  %8 = alloca i8, align 1
  store ptr %0, ptr %4, align 8, !tbaa !4
  store ptr %1, ptr %5, align 8, !tbaa !9
  call void @llvm.lifetime.start.p0(i64 8, ptr %6) #5
  %9 = load ptr, ptr %4, align 8, !tbaa !4
  %10 = call ptr @lxb_html_tree_element_in_scope(ptr noundef %9, i64 noundef 31, i64 noundef 2, i32 noundef 8)
  store ptr %10, ptr %6, align 8, !tbaa !37
  %11 = load ptr, ptr %6, align 8, !tbaa !37
  %12 = icmp eq ptr %11, null
  br i1 %12, label %13, label %16

13:                                               ; preds = %2
  %14 = load ptr, ptr %4, align 8, !tbaa !4
  %15 = load ptr, ptr %5, align 8, !tbaa !9
  call void @lxb_html_tree_parse_error(ptr noundef %14, ptr noundef %15, i32 noundef 24)
  store i1 true, ptr %3, align 1
  store i32 1, ptr %7, align 4
  br label %30

16:                                               ; preds = %2
  call void @llvm.lifetime.start.p0(i64 1, ptr %8) #5
  %17 = load ptr, ptr %4, align 8, !tbaa !4
  %18 = call zeroext i1 @lxb_html_tree_check_scope_element(ptr noundef %17)
  %19 = zext i1 %18 to i8
  store i8 %19, ptr %8, align 1, !tbaa !38
  %20 = load i8, ptr %8, align 1, !tbaa !38, !range !29, !noundef !30
  %21 = trunc i8 %20 to i1
  %22 = zext i1 %21 to i32
  %23 = icmp eq i32 %22, 0
  br i1 %23, label %24, label %27

24:                                               ; preds = %16
  %25 = load ptr, ptr %4, align 8, !tbaa !4
  %26 = load ptr, ptr %5, align 8, !tbaa !9
  call void @lxb_html_tree_parse_error(ptr noundef %25, ptr noundef %26, i32 noundef 21)
  br label %27

27:                                               ; preds = %24, %16
  %28 = load ptr, ptr %4, align 8, !tbaa !4
  %29 = getelementptr inbounds nuw %struct.lxb_html_tree, ptr %28, i32 0, i32 15
  store ptr @lxb_html_tree_insertion_mode_after_body, ptr %29, align 8, !tbaa !20
  store i1 true, ptr %3, align 1
  store i32 1, ptr %7, align 4
  call void @llvm.lifetime.end.p0(i64 1, ptr %8) #5
  br label %30

30:                                               ; preds = %27, %13
  call void @llvm.lifetime.end.p0(i64 8, ptr %6) #5
  %31 = load i1, ptr %3, align 1
  ret i1 %31
}