; Function Attrs: inlinehint nounwind uwtable
define internal fastcc void @lxb_html_tree_insertion_mode_in_body_body_closed(ptr noundef %0, ptr noundef %1) unnamed_addr #3 {
  %3 = tail call ptr @lxb_html_tree_element_in_scope(ptr noundef %0, i64 noundef 31, i64 noundef 2, i32 noundef 8) #6
  %4 = icmp eq ptr %3, null
  br i1 %4, label %5, label %6

5:                                                ; preds = %2
  tail call void @lxb_html_tree_parse_error(ptr noundef %0, ptr noundef %1, i32 noundef 24) #6
  br label %11

6:                                                ; preds = %2
  %7 = tail call zeroext i1 @lxb_html_tree_check_scope_element(ptr noundef %0) #6
  br i1 %7, label %9, label %8

8:                                                ; preds = %6
  tail call void @lxb_html_tree_parse_error(ptr noundef %0, ptr noundef %1, i32 noundef 21) #6
  br label %9

9:                                                ; preds = %8, %6
  %10 = getelementptr inbounds nuw i8, ptr %0, i64 88
  store ptr @lxb_html_tree_insertion_mode_after_body, ptr %10, align 8, !tbaa !17
  br label %11

11:                                               ; preds = %9, %5
  ret void
}